target datalayout = "e-m:e-p270:32:32-p271:32:32-p272:64:64-i64:64-i128:128-f80:128-n8:16:32:64-S128"
target triple = "x86_64-pc-linux-gnu"

%struct.ThreadData = type { ptr, ptr }
%struct.AVFilterLink = type { ptr, ptr, ptr, ptr, i32, i32, i32, i32, %struct.AVRational, i32, i32, i32, %struct.AVChannelLayout, %struct.AVRational, ptr, i32, %struct.AVFilterFormatsConfig, %struct.AVFilterFormatsConfig }
%struct.AVChannelLayout = type { i32, i32, %union.anon.1, ptr }
%union.anon.1 = type { i64 }
%struct.AVRational = type { i32, i32 }
%struct.AVFilterFormatsConfig = type { ptr, ptr, ptr, ptr, ptr }
%struct.AVFilterContext = type { ptr, ptr, ptr, ptr, ptr, i32, ptr, ptr, i32, ptr, ptr, i32, i32, ptr, ptr, ptr, ptr, i32, ptr, i32, i32 }
%struct.SelectiveColorContext = type { ptr, i32, [9 x ptr], [9 x [4 x float]], [9 x %struct.process_range], i32, ptr, [4 x i8], i32, i32 }
%struct.process_range = type { i32, i32, ptr }

; Function Attrs: nounwind uwtable
define internal i32 @filter_frame(ptr noundef %0, ptr noundef %1) #0 {
  %3 = alloca i32, align 4
  %4 = alloca ptr, align 8
  %5 = alloca ptr, align 8
  %6 = alloca ptr, align 8
  %7 = alloca ptr, align 8
  %8 = alloca i32, align 4
  %9 = alloca ptr, align 8
  %10 = alloca %struct.ThreadData, align 8
  %11 = alloca ptr, align 8
  %12 = alloca i32, align 4
  store ptr %0, ptr %4, align 8, !tbaa !4
  store ptr %1, ptr %5, align 8, !tbaa !9
  call void @llvm.lifetime.start.p0(i64 8, ptr %6) #10
  %13 = load ptr, ptr %4, align 8, !tbaa !4
  %14 = getelementptr inbounds nuw %struct.AVFilterLink, ptr %13, i32 0, i32 2
  %15 = load ptr, ptr %14, align 8, !tbaa !11
  store ptr %15, ptr %6, align 8, !tbaa !23
  call void @llvm.lifetime.start.p0(i64 8, ptr %7) #10
  %16 = load ptr, ptr %6, align 8, !tbaa !23
  %17 = getelementptr inbounds nuw %struct.AVFilterContext, ptr %16, i32 0, i32 7
  %18 = load ptr, ptr %17, align 8, !tbaa !24
  %19 = getelementptr inbounds ptr, ptr %18, i64 0
  %20 = load ptr, ptr %19, align 8, !tbaa !4
  store ptr %20, ptr %7, align 8, !tbaa !4
  call void @llvm.lifetime.start.p0(i64 4, ptr %8) #10
  call void @llvm.lifetime.start.p0(i64 8, ptr %9) #10
  call void @llvm.lifetime.start.p0(i64 16, ptr %10) #10
  call void @llvm.lifetime.start.p0(i64 8, ptr %11) #10
  %21 = load ptr, ptr %6, align 8, !tbaa !23
  %22 = getelementptr inbounds nuw %struct.AVFilterContext, ptr %21, i32 0, i32 9
  %23 = load ptr, ptr %22, align 8, !tbaa !34
  store ptr %23, ptr %11, align 8, !tbaa !35
  %24 = load ptr, ptr %5, align 8, !tbaa !9
  %25 = call i32 @av_frame_is_writable(ptr noundef %24)
  %26 = icmp ne i32 %25, 0
  br i1 %26, label %27, label %29

27:                                               ; preds = %2
  store i32 1, ptr %8, align 4, !tbaa !37
  %28 = load ptr, ptr %5, align 8, !tbaa !9
  store ptr %28, ptr %9, align 8, !tbaa !9
  br label %45

29:                                               ; preds = %2
  store i32 0, ptr %8, align 4, !tbaa !37
  %30 = load ptr, ptr %7, align 8, !tbaa !4
  %31 = load ptr, ptr %7, align 8, !tbaa !4
  %32 = getelementptr inbounds nuw %struct.AVFilterLink, ptr %31, i32 0, i32 6
  %33 = load i32, ptr %32, align 8, !tbaa !38
  %34 = load ptr, ptr %7, align 8, !tbaa !4
  %35 = getelementptr inbounds nuw %struct.AVFilterLink, ptr %34, i32 0, i32 7
  %36 = load i32, ptr %35, align 4, !tbaa !39
  %37 = call ptr @ff_get_video_buffer(ptr noundef %30, i32 noundef %33, i32 noundef %36)
  store ptr %37, ptr %9, align 8, !tbaa !9
  %38 = load ptr, ptr %9, align 8, !tbaa !9
  %39 = icmp ne ptr %38, null
  br i1 %39, label %41, label %40

40:                                               ; preds = %29
  call void @av_frame_free(ptr noundef %5)
  store i32 -12, ptr %3, align 4
  store i32 1, ptr %12, align 4
  br label %88

41:                                               ; preds = %29
  %42 = load ptr, ptr %9, align 8, !tbaa !9
  %43 = load ptr, ptr %5, align 8, !tbaa !9
  %44 = call i32 @av_frame_copy_props(ptr noundef %42, ptr noundef %43)
  br label %45

45:                                               ; preds = %41, %27
  %46 = load ptr, ptr %5, align 8, !tbaa !9
  %47 = getelementptr inbounds nuw %struct.ThreadData, ptr %10, i32 0, i32 0
  store ptr %46, ptr %47, align 8, !tbaa !40
  %48 = load ptr, ptr %9, align 8, !tbaa !9
  %49 = getelementptr inbounds nuw %struct.ThreadData, ptr %10, i32 0, i32 1
  store ptr %48, ptr %49, align 8, !tbaa !42
  %50 = load ptr, ptr %6, align 8, !tbaa !23
  %51 = load ptr, ptr %11, align 8, !tbaa !35
  %52 = getelementptr inbounds nuw %struct.SelectiveColorContext, ptr %51, i32 0, i32 8
  %53 = load i32, ptr %52, align 4, !tbaa !43
  %54 = sext i32 %53 to i64
  %55 = getelementptr inbounds [2 x [2 x [2 x ptr]]], ptr @filter_frame.funcs, i64 0, i64 %54
  %56 = load i32, ptr %8, align 4, !tbaa !37
  %57 = sext i32 %56 to i64
  %58 = getelementptr inbounds [2 x [2 x ptr]], ptr %55, i64 0, i64 %57
  %59 = load ptr, ptr %11, align 8, !tbaa !35
  %60 = getelementptr inbounds nuw %struct.SelectiveColorContext, ptr %59, i32 0, i32 1
  %61 = load i32, ptr %60, align 8, !tbaa !45
  %62 = sext i32 %61 to i64
  %63 = getelementptr inbounds [2 x ptr], ptr %58, i64 0, i64 %62
  %64 = load ptr, ptr %63, align 8, !tbaa !46
  %65 = load ptr, ptr %4, align 8, !tbaa !4
  %66 = getelementptr inbounds nuw %struct.AVFilterLink, ptr %65, i32 0, i32 7
  %67 = load i32, ptr %66, align 4, !tbaa !39
  %68 = load ptr, ptr %6, align 8, !tbaa !23
  %69 = call i32 @ff_filter_get_nb_threads(ptr noundef %68) #11
  %70 = icmp sgt i32 %67, %69
  br i1 %70, label %71, label %74

71:                                               ; preds = %45
  %72 = load ptr, ptr %6, align 8, !tbaa !23
  %73 = call i32 @ff_filter_get_nb_threads(ptr noundef %72) #11
  br label %78

74:                                               ; preds = %45
  %75 = load ptr, ptr %4, align 8, !tbaa !4
  %76 = getelementptr inbounds nuw %struct.AVFilterLink, ptr %75, i32 0, i32 7
  %77 = load i32, ptr %76, align 4, !tbaa !39
  br label %78

78:                                               ; preds = %74, %71
  %79 = phi i32 [ %73, %71 ], [ %77, %74 ]
  %80 = call i32 @ff_filter_execute(ptr noundef %50, ptr noundef %64, ptr noundef %10, ptr noundef null, i32 noundef %79)
  %81 = load i32, ptr %8, align 4, !tbaa !37
  %82 = icmp ne i32 %81, 0
  br i1 %82, label %84, label %83

83:                                               ; preds = %78
  call void @av_frame_free(ptr noundef %5)
  br label %84

84:                                               ; preds = %83, %78
  %85 = load ptr, ptr %7, align 8, !tbaa !4
  %86 = load ptr, ptr %9, align 8, !tbaa !9
  %87 = call i32 @ff_filter_frame(ptr noundef %85, ptr noundef %86)
  store i32 %87, ptr %3, align 4
  store i32 1, ptr %12, align 4
  br label %88

88:                                               ; preds = %84, %40
  call void @llvm.lifetime.end.p0(i64 8, ptr %11) #10
  call void @llvm.lifetime.end.p0(i64 16, ptr %10) #10
  call void @llvm.lifetime.end.p0(i64 8, ptr %9) #10
  call void @llvm.lifetime.end.p0(i64 4, ptr %8) #10
  call void @llvm.lifetime.end.p0(i64 8, ptr %7) #10
  call void @llvm.lifetime.end.p0(i64 8, ptr %6) #10
  %89 = load i32, ptr %3, align 4
  ret i32 %89
}