; Function Attrs: nounwind uwtable
define internal i32 @filter_frame(ptr noundef readonly captures(none) %0, ptr noundef %1) #0 {
  %3 = alloca ptr, align 8
  %4 = alloca %struct.ThreadData, align 8
  store ptr %1, ptr %3, align 8, !tbaa !4
  %5 = getelementptr inbounds nuw i8, ptr %0, i64 16
  %6 = load ptr, ptr %5, align 8, !tbaa !9
  %7 = getelementptr inbounds nuw i8, ptr %6, i64 56
  %8 = load ptr, ptr %7, align 8, !tbaa !21
  %9 = load ptr, ptr %8, align 8, !tbaa !31
  call void @llvm.lifetime.start.p0(i64 16, ptr nonnull %4) #10
  %10 = getelementptr inbounds nuw i8, ptr %6, i64 72
  %11 = load ptr, ptr %10, align 8, !tbaa !33
  %12 = tail call i32 @av_frame_is_writable(ptr noundef %1) #10
  %.not = icmp eq i32 %12, 0
  br i1 %.not, label %13, label %22

13:                                               ; preds = %2
  %14 = getelementptr inbounds nuw i8, ptr %9, i64 40
  %15 = load i32, ptr %14, align 8, !tbaa !34
  %16 = getelementptr inbounds nuw i8, ptr %9, i64 44
  %17 = load i32, ptr %16, align 4, !tbaa !35
  %18 = tail call ptr @ff_get_video_buffer(ptr noundef %9, i32 noundef %15, i32 noundef %17) #10
  %.not25 = icmp eq ptr %18, null
  br i1 %.not25, label %19, label %20

19:                                               ; preds = %13
  call void @av_frame_free(ptr noundef nonnull %3) #10
  br label %39

20:                                               ; preds = %13
  %21 = tail call i32 @av_frame_copy_props(ptr noundef nonnull %18, ptr noundef %1) #10
  br label %22

22:                                               ; preds = %2, %20
  %.021 = phi i64 [ 0, %20 ], [ 1, %2 ]
  %.020 = phi ptr [ %18, %20 ], [ %1, %2 ]
  store ptr %1, ptr %4, align 8, !tbaa !36
  %23 = getelementptr inbounds nuw i8, ptr %4, i64 8
  store ptr %.020, ptr %23, align 8, !tbaa !38
  %24 = getelementptr inbounds nuw i8, ptr %11, i64 396
  %25 = load i32, ptr %24, align 4, !tbaa !39
  %26 = sext i32 %25 to i64
  %27 = getelementptr inbounds nuw i8, ptr %11, i64 8
  %28 = load i32, ptr %27, align 8, !tbaa !41
  %29 = sext i32 %28 to i64
  %30 = getelementptr inbounds [2 x [2 x [2 x ptr]]], ptr @filter_frame.funcs, i64 0, i64 %26, i64 %.021, i64 %29
  %31 = load ptr, ptr %30, align 8, !tbaa !42
  %32 = getelementptr inbounds nuw i8, ptr %0, i64 44
  %33 = load i32, ptr %32, align 4, !tbaa !35
  %34 = tail call i32 @ff_filter_get_nb_threads(ptr noundef nonnull %6) #11
  %. = tail call i32 @llvm.smin.i32(i32 %33, i32 %34)
  %35 = call i32 @ff_filter_execute(ptr noundef nonnull %6, ptr noundef %31, ptr noundef nonnull %4, ptr noundef null, i32 noundef %.) #10
  br i1 %.not, label %36, label %37

36:                                               ; preds = %22
  call void @av_frame_free(ptr noundef nonnull %3) #10
  br label %37

37:                                               ; preds = %36, %22
  %38 = call i32 @ff_filter_frame(ptr noundef %9, ptr noundef %.020) #10
  br label %39

39:                                               ; preds = %37, %19
  %.0 = phi i32 [ %38, %37 ], [ -12, %19 ]
  call void @llvm.lifetime.end.p0(i64 16, ptr nonnull %4) #10
  ret i32 %.0
}